#include <math.h>
#include <stdio.h>
#include <stdlib.h>
#include <string.h>
#include <iostream>
using namespace std;


int main()
{
	int n,a[120],i,temp;
	int *p = NULL;//????
	p = a;
	cin >> n;
	for ( i = 0 ; i < n; i ++ )  cin >> *(p + i);
	for ( i = 0 ; i < n / 2 ; i ++ )//?????
	{
		temp = *(p + i);
		*(p + i) = *(p + n - 1 - i);
		*(p + n - 1- i ) = temp;
	}
	cout << a[0];
	for ( i = 1 ; i < n; i ++) cout << ' ' << *(p + i);
	return 0;
}

